Certificate:
    Data:
        Version: 3 (0x2)
        Serial Number: 298 (0x12a)
        Signature Algorithm: sha256WithRSAEncryption
        Issuer: C = US, O = U.S. Government, OU = DoD, OU = PKI, CN = DoD Root CA 3
        Validity
            Not Before: Nov 22 13:49:57 2016 GMT
            Not After : Nov 23 13:49:57 2022 GMT
        Subject: C = US, O = U.S. Government, OU = DoD, OU = PKI, CN = DOD ID CA-52
        Subject Public Key Info:
            Public Key Algorithm: rsaEncryption
                RSA Public-Key: (2048 bit)
                Modulus:
                    00:96:dc:dc:32:9d:8e:d3:6b:7e:7f:07:7b:ad:39:
                    6e:82:82:aa:60:5f:1e:a3:fd:cc:f8:95:5d:a6:93:
                    c0:1d:38:89:55:a5:6d:d0:94:9e:33:8c:72:66:c2:
                    8d:a0:f0:68:15:6f:f2:b2:19:f1:95:1b:ff:2f:23:
                    71:d1:50:5b:9f:ee:26:27:b1:1a:d5:4e:05:04:fc:
                    42:49:9e:bc:55:8a:8a:75:5e:b8:50:c8:67:75:ac:
                    15:04:93:37:3b:2f:18:dd:9c:4f:95:d4:c3:7f:d0:
                    29:0a:0e:1d:65:74:84:89:29:d2:84:ef:18:ba:98:
                    6b:35:b6:00:77:a6:2b:75:49:f5:22:10:c0:87:0f:
                    74:55:35:37:18:c2:eb:bb:8b:f1:eb:4b:c5:1e:c7:
                    16:79:91:e9:1d:f1:13:f0:0b:02:95:b0:32:aa:ee:
                    b9:6e:c6:b5:fa:8d:17:bc:62:d0:cb:61:93:33:31:
                    15:69:1d:4d:85:85:56:29:14:b0:82:a5:b9:ee:06:
                    c4:f2:95:7e:eb:75:98:37:08:bc:5c:8a:ff:d9:36:
                    89:e4:6b:e0:05:50:9b:80:95:80:c2:c4:9f:15:3c:
                    f6:d5:9a:8e:a2:ed:1d:e7:16:2e:ef:d8:88:22:e7:
                    b9:0c:4a:11:5b:56:e6:aa:c7:ab:1c:d1:bb:82:c3:
                    2f:1f
                Exponent: 65537 (0x10001)
        X509v3 extensions:
            X509v3 Authority Key Identifier: 
                keyid:6C:8A:94:A2:77:B1:80:72:1D:81:7A:16:AA:F2:DC:CE:66:EE:45:C0

            X509v3 Subject Key Identifier: 
                9A:E8:51:AC:91:54:D7:94:9A:04:48:FA:22:79:FF:C6:D5:EE:86:2B
            X509v3 Key Usage: critical
                Digital Signature, Certificate Sign, CRL Sign
            X509v3 Certificate Policies: 
                Policy: 2.16.840.1.101.2.1.11.36
                Policy: 2.16.840.1.101.2.1.11.39
                Policy: 2.16.840.1.101.2.1.11.42
                Policy: 2.16.840.1.101.2.1.11.59
                Policy: 2.16.840.1.101.3.2.1.3.13
                Policy: 2.16.840.1.101.3.2.1.3.17
                Policy: 2.16.840.1.101.3.2.1.3.39

            X509v3 Basic Constraints: critical
                CA:TRUE, pathlen:0
            X509v3 Policy Constraints: 
                Require Explicit Policy:0
            X509v3 CRL Distribution Points: 

                Full Name:
                  URI:http://crl.disa.mil/crl/DODROOTCA3.crl

            Authority Information Access: 
                CA Issuers - URI:http://crl.disa.mil/issuedto/DODROOTCA3_IT.p7c
                OCSP - URI:http://ocsp.disa.mil

    Signature Algorithm: sha256WithRSAEncryption
         93:1b:dd:b1:b3:a1:db:31:99:0a:c8:f7:9e:ef:5f:1c:43:02:
         94:95:6d:2b:89:09:cc:f2:59:3e:2e:38:81:d4:a7:f9:4f:17:
         e6:56:ed:4f:49:31:b1:1a:ea:08:06:67:b6:58:10:9a:9f:83:
         c6:74:02:96:bd:f9:7e:36:a8:df:01:7b:f6:74:1a:20:e3:f6:
         ef:cf:5a:f5:55:99:83:22:5f:3e:b5:76:28:bb:31:00:7e:3f:
         a0:e7:76:65:87:54:b4:77:c2:95:b7:d9:c1:ba:71:16:e9:41:
         a8:f5:b1:ca:c2:90:3b:1d:d7:0b:fd:cb:b3:30:91:d1:81:6a:
         6d:5f:dc:e6:10:51:07:50:38:b1:60:65:17:c2:91:19:0c:8a:
         74:0c:9c:2b:b3:eb:2d:c4:8c:9c:ba:b4:e2:e8:1d:e4:c7:d8:
         5a:e2:63:27:1f:d4:48:d3:56:96:29:7f:2f:3a:b2:08:5c:f1:
         3e:9e:27:18:10:7c:cb:cb:36:2d:c6:72:be:87:e1:1c:80:4d:
         f6:ac:65:df:e1:17:70:9c:9e:ca:ac:8d:89:56:5c:80:98:be:
         0c:b4:a6:04:27:24:6f:62:7a:94:df:6d:6c:65:95:d3:65:8a:
         fb:c3:a2:02:26:77:d4:27:c9:fe:c7:b3:67:9f:04:65:ac:86:
         61:2d:37:d5
-----BEGIN CERTIFICATE-----
MIIEuTCCA6GgAwIBAgICASowDQYJKoZIhvcNAQELBQAwWzELMAkGA1UEBhMCVVMx
GDAWBgNVBAoTD1UuUy4gR292ZXJubWVudDEMMAoGA1UECxMDRG9EMQwwCgYDVQQL
EwNQS0kxFjAUBgNVBAMTDURvRCBSb290IENBIDMwHhcNMTYxMTIyMTM0OTU3WhcN
MjIxMTIzMTM0OTU3WjBaMQswCQYDVQQGEwJVUzEYMBYGA1UECgwPVS5TLiBHb3Zl
cm5tZW50MQwwCgYDVQQLDANEb0QxDDAKBgNVBAsMA1BLSTEVMBMGA1UEAwwMRE9E
IElEIENBLTUyMIIBIjANBgkqhkiG9w0BAQEFAAOCAQ8AMIIBCgKCAQEAltzcMp2O
02t+fwd7rTlugoKqYF8eo/3M+JVdppPAHTiJVaVt0JSeM4xyZsKNoPBoFW/yshnx
lRv/LyNx0VBbn+4mJ7Ea1U4FBPxCSZ68VYqKdV64UMhndawVBJM3Oy8Y3ZxPldTD
f9ApCg4dZXSEiSnShO8YuphrNbYAd6YrdUn1IhDAhw90VTU3GMLru4vx60vFHscW
eZHpHfET8AsClbAyqu65bsa1+o0XvGLQy2GTMzEVaR1NhYVWKRSwgqW57gbE8pV+
63WYNwi8XIr/2TaJ5GvgBVCbgJWAwsSfFTz21ZqOou0d5xYu79iIIue5DEoRW1bm
qserHNG7gsMvHwIDAQABo4IBhjCCAYIwHwYDVR0jBBgwFoAUbIqUonexgHIdgXoW
qvLczmbuRcAwHQYDVR0OBBYEFJroUayRVNeUmgRI+iJ5/8bV7oYrMA4GA1UdDwEB
/wQEAwIBhjBnBgNVHSAEYDBeMAsGCWCGSAFlAgELJDALBglghkgBZQIBCycwCwYJ
YIZIAWUCAQsqMAsGCWCGSAFlAgELOzAMBgpghkgBZQMCAQMNMAwGCmCGSAFlAwIB
AxEwDAYKYIZIAWUDAgEDJzASBgNVHRMBAf8ECDAGAQH/AgEAMAwGA1UdJAQFMAOA
AQAwNwYDVR0fBDAwLjAsoCqgKIYmaHR0cDovL2NybC5kaXNhLm1pbC9jcmwvRE9E
Uk9PVENBMy5jcmwwbAYIKwYBBQUHAQEEYDBeMDoGCCsGAQUFBzAChi5odHRwOi8v
Y3JsLmRpc2EubWlsL2lzc3VlZHRvL0RPRFJPT1RDQTNfSVQucDdjMCAGCCsGAQUF
BzABhhRodHRwOi8vb2NzcC5kaXNhLm1pbDANBgkqhkiG9w0BAQsFAAOCAQEAkxvd
sbOh2zGZCsj3nu9fHEMClJVtK4kJzPJZPi44gdSn+U8X5lbtT0kxsRrqCAZntlgQ
mp+DxnQClr35fjao3wF79nQaIOP2789a9VWZgyJfPrV2KLsxAH4/oOd2ZYdUtHfC
lbfZwbpxFulBqPWxysKQOx3XC/3LszCR0YFqbV/c5hBRB1A4sWBlF8KRGQyKdAyc
K7PrLcSMnLq04ugd5MfYWuJjJx/USNNWlil/LzqyCFzxPp4nGBB8y8s2LcZyvofh
HIBN9qxl3+EXcJyeyqyNiVZcgJi+DLSmBCckb2J6lN9tbGWV02WK+8OiAiZ31CfJ
/sezZ58EZayGYS031Q==
-----END CERTIFICATE-----
