Certificate:
    Data:
        Version: 3 (0x2)
        Serial Number: 5 (0x5)
        Signature Algorithm: sha1WithRSAEncryption
        Issuer: C = US, O = U.S. Government, OU = ECA, CN = ECA Root CA 2
        Validity
            Not Before: Apr  4 14:24:49 2008 GMT
            Not After : Mar 30 14:24:49 2028 GMT
        Subject: C = US, O = U.S. Government, OU = ECA, CN = ECA Root CA 2
        Subject Public Key Info:
            Public Key Algorithm: rsaEncryption
                RSA Public-Key: (2048 bit)
                Modulus:
                    00:b3:90:d8:1e:ef:9a:ed:6e:47:b1:46:61:46:8d:
                    a3:56:08:9c:4a:32:c7:45:f2:d2:a4:a4:66:be:7e:
                    3d:97:80:ef:e9:d7:6b:e9:e0:c0:3b:8d:e2:f8:12:
                    fa:13:35:a4:cd:5a:86:8b:b0:d0:2f:34:8c:f7:05:
                    ed:87:6f:a7:30:17:d0:16:c6:58:46:bd:95:f9:56:
                    1a:88:d4:4e:1e:7e:58:1f:1b:a2:73:15:9d:5e:8b:
                    06:24:13:76:3c:9f:60:62:ad:b0:b5:f4:e0:24:c1:
                    53:f7:d9:1c:37:1d:e6:3c:f0:fa:d3:f1:f9:a1:98:
                    f1:37:85:d8:cf:02:60:f0:a0:38:94:4b:51:28:09:
                    c2:17:fc:40:a4:61:79:0e:b4:8c:1b:20:82:62:f5:
                    e4:9a:d6:29:8a:36:fa:1f:81:c0:a1:11:31:4b:fe:
                    56:fd:d8:bf:51:93:27:59:da:f5:83:3e:44:a4:df:
                    d5:20:67:eb:9f:00:a7:fb:de:31:b6:63:31:1c:3d:
                    f7:1c:6c:09:8d:7f:f4:ba:9c:a8:7c:1f:01:c6:80:
                    6d:01:01:d8:37:a8:fe:2d:7d:2b:c2:cb:d6:e9:9c:
                    ba:94:8d:76:16:de:cc:81:75:04:7b:41:77:15:65:
                    15:c9:ac:00:b6:bf:eb:1c:dc:b9:8d:64:2d:ff:35:
                    db:c5
                Exponent: 65537 (0x10001)
        X509v3 extensions:
            X509v3 Subject Key Identifier: 
                ED:E4:87:D0:27:C4:50:E6:84:3A:F7:CC:F7:EB:3A:49:FC:52:4E:21
            X509v3 Key Usage: critical
                Digital Signature, Certificate Sign, CRL Sign
            X509v3 Basic Constraints: critical
                CA:TRUE
            Subject Information Access: 
                CA Repository - URI:http://crl.gds.disa.mil/getIssuedBy?ECA%20Root%20CA%202
                CA Repository - URI:ldap://crl.gds.disa.mil/cn%3dECA%20Root%20CA%202%2cou%3dECA%2co%3dU.S.%20Government%2cc%3dUS?crossCertificatePair;binary

    Signature Algorithm: sha1WithRSAEncryption
         4a:cc:1b:e7:85:88:93:23:d9:b9:be:cf:ba:f1:35:94:c1:4b:
         3c:13:70:5d:83:2e:4e:7e:c1:56:0f:2d:c1:7e:1f:0d:e9:dd:
         fe:02:99:7c:60:e3:86:aa:b9:86:23:c3:17:7e:c7:11:0f:e3:
         d0:42:56:a3:1c:f3:70:8f:b1:88:91:b5:bc:0e:89:25:66:c8:
         3f:5f:36:2a:0e:3e:b6:67:40:8c:3d:40:df:a7:62:e0:38:18:
         fa:24:6d:2d:23:d3:c0:b8:74:5e:95:44:54:7a:21:97:0f:5a:
         cd:c3:fc:95:3d:22:22:15:dd:18:60:5d:85:37:a9:4d:f7:81:
         fc:bd:4a:a6:58:8c:4f:bf:c7:65:a1:ff:e2:d3:34:48:1a:17:
         01:32:f2:84:f3:de:05:b2:64:49:98:37:cd:21:f5:a8:81:5b:
         64:c5:da:7c:58:b0:61:61:1f:ad:c0:ad:ed:34:b6:94:ab:c7:
         9c:ec:65:97:29:85:94:94:33:c4:35:24:8b:3d:cd:fc:37:2a:
         bb:fa:a4:b6:1b:90:f2:95:57:17:48:e0:ef:a9:9d:ad:00:e2:
         b1:64:d9:67:79:11:83:b9:9a:e8:0b:32:36:ce:20:67:e3:7a:
         6d:4b:ea:5e:53:e5:2f:30:41:dd:f8:e5:54:9d:a9:d7:69:c6:
         75:d9:45:47
-----BEGIN CERTIFICATE-----
MIIEOjCCAyKgAwIBAgIBBTANBgkqhkiG9w0BAQUFADBNMQswCQYDVQQGEwJVUzEY
MBYGA1UEChMPVS5TLiBHb3Zlcm5tZW50MQwwCgYDVQQLEwNFQ0ExFjAUBgNVBAMT
DUVDQSBSb290IENBIDIwHhcNMDgwNDA0MTQyNDQ5WhcNMjgwMzMwMTQyNDQ5WjBN
MQswCQYDVQQGEwJVUzEYMBYGA1UEChMPVS5TLiBHb3Zlcm5tZW50MQwwCgYDVQQL
EwNFQ0ExFjAUBgNVBAMTDUVDQSBSb290IENBIDIwggEiMA0GCSqGSIb3DQEBAQUA
A4IBDwAwggEKAoIBAQCzkNge75rtbkexRmFGjaNWCJxKMsdF8tKkpGa+fj2XgO/p
12vp4MA7jeL4EvoTNaTNWoaLsNAvNIz3Be2Hb6cwF9AWxlhGvZX5VhqI1E4eflgf
G6JzFZ1eiwYkE3Y8n2BirbC19OAkwVP32Rw3HeY88PrT8fmhmPE3hdjPAmDwoDiU
S1EoCcIX/ECkYXkOtIwbIIJi9eSa1imKNvofgcChETFL/lb92L9RkydZ2vWDPkSk
39UgZ+ufAKf73jG2YzEcPfccbAmNf/S6nKh8HwHGgG0BAdg3qP4tfSvCy9bpnLqU
jXYW3syBdQR7QXcVZRXJrAC2v+sc3LmNZC3/NdvFAgMBAAGjggEjMIIBHzAdBgNV
HQ4EFgQU7eSH0CfEUOaEOvfM9+s6SfxSTiEwDgYDVR0PAQH/BAQDAgGGMA8GA1Ud
EwEB/wQFMAMBAf8wgdwGCCsGAQUFBwELBIHPMIHMMEMGCCsGAQUFBzAFhjdodHRw
Oi8vY3JsLmdkcy5kaXNhLm1pbC9nZXRJc3N1ZWRCeT9FQ0ElMjBSb290JTIwQ0El
MjAyMIGEBggrBgEFBQcwBYZ4bGRhcDovL2NybC5nZHMuZGlzYS5taWwvY24lM2RF
Q0ElMjBSb290JTIwQ0ElMjAyJTJjb3UlM2RFQ0ElMmNvJTNkVS5TLiUyMEdvdmVy
bm1lbnQlMmNjJTNkVVM/Y3Jvc3NDZXJ0aWZpY2F0ZVBhaXI7YmluYXJ5MA0GCSqG
SIb3DQEBBQUAA4IBAQBKzBvnhYiTI9m5vs+68TWUwUs8E3Bdgy5OfsFWDy3Bfh8N
6d3+Apl8YOOGqrmGI8MXfscRD+PQQlajHPNwj7GIkbW8DoklZsg/XzYqDj62Z0CM
PUDfp2LgOBj6JG0tI9PAuHRelURUeiGXD1rNw/yVPSIiFd0YYF2FN6lN94H8vUqm
WIxPv8dlof/i0zRIGhcBMvKE894FsmRJmDfNIfWogVtkxdp8WLBhYR+twK3tNLaU
q8ec7GWXKYWUlDPENSSLPc38Nyq7+qS2G5DylVcXSODvqZ2tAOKxZNlneRGDuZro
CzI2ziBn43ptS+peU+UvMEHd+OVUnanXacZ12UVH
-----END CERTIFICATE-----
